(dp1
Vhttp://www.nhl.com/ice/gallerylanding.htm?id=45273&iid=1509913
p2
(lp3
I1
aI6
asV/events/1527202094179582/
p4
(lp5
I1
aI1
asVhttp://www.cayennepepper.info/lemon-cayenne-pepper-detox-drink.html
p6
(lp7
I1
aI1
asVhttp://blogs.wsj.com/dispatch/2014/10/07/putin-on-his-birthday-depicted-as-hercules/
p8
(lp9
I1
aI2
asVhttp://www.theguardian.com/science/2014/dec/10/water-comet-67p-earth-rosetta
p10
(lp11
I1
aI0
asVhttp://hellogiggles.com/watch-president-barak-obama-cover-iggy-azaleas-fancy
p12
(lp13
I1
aI1
asVhttps://fbcdn-sphotos-d-a.akamaihd.net/hphotos-ak-xfp1/v/t1.0-9/q81/s130x130/10704088_10152749998399910_6238824419730040837_n.jpg?oh=5bba6826f67c6effae8c07ecfca10821&oe=558D9CC1&__gda__=1434672178_4ba28993100586776de082851e6ca26c
p14
(lp15
I1
aI32
asVhttps://www.youtube.com/watch?v=sU9QTLXYCCc
p16
(lp17
I1
aI10
asVhttp://www.buzzfeed.com/juliegerstein/super-cute-best-friend-tattoos?bffb&utm_term=4ldqpgp#3oehckv
p18
(lp19
I1
aI0
asVhttps://www.facebook.com/NPR/photos/a.315515951755.185285.10643211755/10152917025016756/?type=1
p20
(lp21
I1
aI4
asVhttp://imgur.com/a/47Fue#6
p22
(lp23
I1
aI9
asVhttp://www.dance-teacher.com/2014/10/watch-what-this-dance-company-did-for-national-bullying-prevention-month/
p24
(lp25
I1
aI4
asVhttp://weknowmemes.com/wp-content/uploads/2012/01/no-i-must-dance.jpg
p26
(lp27
I1
aI4
asVhttps://soundcloud.com/obituan-vu-2/diplo-and-friends-lido-jstjr-2014-10-12
p28
(lp29
I1
aI1
asVhttp://www.forharriet.com/2014/12/what-we-need-from-white-allies-in-fight.html
p30
(lp31
I1
aI4
asVhttp://www.gfycat.com/BountifulNecessaryAcornbarnacle
p32
(lp33
I1
aI2
asVhttp://oak.ctx.ly/r/1rnm0
p34
(lp35
I1
aI2
asVhttp://www.youtube.com/watch?v=5iabyEebfCc&list=WLo6HfADLpAn0RcYRnD3t_AjMj5-CJmC8e
p36
(lp37
I1
aI2
asVhttp://www.bustle.com/articles/31841-we-stand-with-jada-when-rape-is-an-ongoing-viral-trend-we-have-a-big-problem
p38
(lp39
I1
aI3
asVhttp://drunkjcrew.tumblr.com/
p40
(lp41
I1
aI2
asVhttps://www.youtube.com/watch?v=Du3ph9619Bk
p42
(lp43
I1
aI1
asVhttps://www.youtube.com/watch?v=qfEL4JlInz8&list=UUi7GJNg51C3jgmYTUwqoUXA
p44
(lp45
I1
aI1
asVhttps://www.facebook.com/suadisinusa/photos/a.147654745986.141320.130820830986/10152393487790987/?type=1
p46
(lp47
I1
aI3
asVhttps://fbcdn-sphotos-g-a.akamaihd.net/hphotos-ak-xaf1/v/t1.0-9/q84/p130x130/10513481_10152511124858449_4090354979587652557_n.jpg?oh=03bf54dd71335ed1362f75b87302d919&oe=557FD70C&__gda__=1431374131_a68017ac0d9e8ce3559e7030bf84ecab
p48
(lp49
I1
aI0
asVhttps://www.facebook.com/video.php?v=699272926835917
p50
(lp51
I1
aI0
asVhttps://www.facebook.com/video.php?v=262621687235679
p52
(lp53
I1
aI1
asVhttp://www.buzzfeed.com/mattbellassai/the-man-candiest-moments-of-2013
p54
(lp55
I1
aI4
asVhttp://cdn.swimswam.com/wp-content/uploads/2014/02/2014-NCAA-Division-III-preselection-psych-sheets.pdf
p56
(lp57
I1
aI6
asVhttp://www.youtube.com/watch?v=KnnvfHz7qzA
p58
(lp59
I1
aI1
asVhttps://soundcloud.com/bryunroo/carl-grover-and-the-wifi-thief
p60
(lp61
I1
aI2
asVhttps://fbcdn-sphotos-h-a.akamaihd.net/hphotos-ak-xap1/v/t1.0-9/s130x130/560249_10153494972674989_5941659689906828682_n.jpg?oh=5dde3483b9498f5ad9e63f56cb9b1377&oe=5590EEBD&__gda__=1434451171_db79ba6e578dc5ebc9662f28f1380902
p62
(lp63
I1
aI11
asVhttps://scontent.xx.fbcdn.net/hphotos-xaf1/v/t1.0-9/s130x130/10968569_10153023035925726_1114878110363080811_n.jpg?oh=1dd29c9bfdf38f49099b7eb8cc3ccb88&oe=558A19F9
p64
(lp65
I1
aI2
asVhttp://www.milanomodauomo.it/en/
p66
(lp67
I1
aI0
asVhttps://www.facebook.com/video.php?v=1105372829485775
p68
(lp69
I1
aI9
asVhttp://9gag.com/gag/a75gyRw
p70
(lp71
I1
aI1
asVhttps://fbcdn-sphotos-g-a.akamaihd.net/hphotos-ak-xap1/v/t1.0-9/s130x130/19605_10152351837017619_36134031_n.jpg?oh=98e6d57840801c6984c5a7a2e99c6679&oe=5585CFF7&__gda__=1435763610_de722738e5f3eee4da8c311a1b08c189
p72
(lp73
I1
aI39
asVhttp://www.godfruits.com/8538/watch-what-happens-when-she-pours-the-condensed-milk-on-top-of-chocolate-chips.php?ref=14
p74
(lp75
I1
aI1
asVhttp://www.meetup.com/Mansfield-Trail-Runners/events/130978602/?a=md1_grp&rv=md1&_af_eid=130978602&_af=event
p76
(lp77
I1
aI1
asVhttps://www.youtube.com/watch?v=0fXQ8JyxGC8
p78
(lp79
I1
aI1
asVhttps://www.facebook.com/AuthorZane/photos/a.380895067266.167719.180888767266/10151352369522267/?type=1
p80
(lp81
I1
aI2
asS'num_posts'
p82
I935
sVhttp://www.youtube.com/watch?v=LXWyTKrhSt0
p83
(lp84
I1
aI1
asVhttp://m.huffpost.com/us/entry/6677860
p85
(lp86
I1
aI2
asVhttp://www.accuweather.com/en/weather-news/major-blizzard-to-shut-down-bo/41180972
p87
(lp88
I1
aI1
asVhttp://cheezburger.com/8112874240
p89
(lp90
I1
aI2
asVhttp://canyouactually.com/one-of-the-most-extreme-and-disturbing-haunted-houses-on-the-planet/
p91
(lp92
I1
aI2
asVhttp://www.youtube.com/watch?v=NSroGlkmXQE
p93
(lp94
I1
aI4
asVhttp://thehairpin.com/2014/05/may-horoscopes-from-galactic-rabbit
p95
(lp96
I1
aI1
asVhttps://www.facebook.com/video.php?v=1573889956085214
p97
(lp98
I1
aI1
asVhttps://www.youtube.com/watch?v=n-D1EB74Ckg
p99
(lp100
I1
aI0
asVhttp://www.youtube.com/watch?v=Bv8MGYnP820
p101
(lp102
I1
aI1
asVhttps://www.youtube.com/watch?v=wHcV-gj5djE#t=97
p103
(lp104
I1
aI2
asVhttp://www.buzzfeed.com/justinabarca/the-definitive-ranking-of-disney-princes
p105
(lp106
I1
aI1
asVhttp://thenerve.us/blog/shia-labeouf/
p107
(lp108
I1
aI3
asVhttp://m.imgur.com/gallery/42N6b
p109
(lp110
I1
aI0
asVhttp://www.buzzfeed.com/mjs538/people-anderson-cooper-made-look-like-complete-fools?bftw=main
p111
(lp112
I1
aI1
asVhttp://youtu.be/Bfrh_yZ6Bow
p113
(lp114
I1
aI5
asVhttp://whatshouldwecallme.tumblr.com/post/70738039642/when-my-friends-i-are-trying-to-create-a-new-holiday
p115
(lp116
I1
aI5
asVhttp://upworthy.com/watch-what-this-make-believe-girl-means-to-1000-pedophiles
p117
(lp118
I1
aI0
asVhttp://i.imgur.com/g4kljK4.jpg
p119
(lp120
I1
aI0
asVhttp://www.sportmartialarts.com/sportmartialarts-com-best-2014-poll/
p121
(lp122
I1
aI4
asVhttp://www.bustle.com/articles/33545-whats-it-like-to-be-an-older-sister-12-things-only-we-older-sisters-will-understand
p123
(lp124
I1
aI1
asVhttp://owlskitchen.org/About.html
p125
(lp126
I1
aI2
asVhttps://www.youtube.com/watch?v=HmJbJs-9ST0
p127
(lp128
I1
aI2
asVhttp://www.bbc.co.uk/programmes/p02fm0dz
p129
(lp130
I1
aI0
asVhttp://www.buzzfeed.com/jenlewis/which-love-actually-character-are-you
p131
(lp132
I1
aI3
asVhttp://youtu.be/e-BVs-KCSiA
p133
(lp134
I1
aI8
asVhttp://www.huffingtonpost.com/2014/01/25/2014-archdaily-building-of-the-year-awards_n_4645591.html
p135
(lp136
I1
aI0
asVhttps://www.facebook.com/video.php?v=898360616855983
p137
(lp138
I1
aI8
asVhttp://www.hulu.com/watch/707973#i1,p4,d1
p139
(lp140
I1
aI1
asVhttp://youtube.com/watch?v=nNHsA4WIFvc
p141
(lp142
I1
aI3
asVhttps://www.facebook.com/video.php?v=789461491116105
p143
(lp144
I1
aI1
asVhttp://news.discovery.com/animals/endangered-species/ugly-animals-need-saving-130618.htm
p145
(lp146
I1
aI1
asVhttp://iwastesomuchtime.com/on/?i=78452
p147
(lp148
I1
aI2
asVhttp://jonnegroni.com/2013/07/11/the-pixar-theory/
p149
(lp150
I1
aI0
asVhttps://www.facebook.com/CampusKitchenWilliamandMary/photos/a.10151406957765539.528796.65736430538/10152715446155539/?type=1
p151
(lp152
I1
aI6
asVhttp://joannarenteria.com/2011/12/13/i-was-considering-grad-school-and-then-i-saw-this-hilarious/
p153
(lp154
I1
aI1
asVhttps://www.facebook.com/globe/photos/a.10150195376623258.332014.5637143257/10153068899308258/?type=1
p155
(lp156
I1
aI1
asVhttp://mic.com/articles/108854/nasa-just-released-the-most-detailed-photo-of-outer-space-ever-taken
p157
(lp158
I1
aI3
asVhttp://f.kulfoto.com/pic/0001/0050/L4v9v49858.jpg
p159
(lp160
I1
aI1
asVhttps://scontent.xx.fbcdn.net/hphotos-xpf1/v/t1.0-9/s130x130/1959438_10152434744398193_7671017406028988120_n.jpg?oh=e235fb4dd05bfd5b8dcc61e08d4e8d57&oe=5588CC9C
p161
(lp162
I1
aI1
asVhttps://www.facebook.com/video.php?v=522361211171012
p163
(lp164
I1
aI1
asVhttp://shar.es/Qhhsr
p165
(lp166
I1
aI6
asVhttp://smarturl.it/tsto_device
p167
(lp168
I1
aI0
asVhttps://www.youtube.com/watch?v=nawEqAz-8-s
p169
(lp170
I1
aI0
asVhttps://www.facebook.com/thebigtino/photos/a.435163856024.197038.218195361024/10152686454406025/?type=1
p171
(lp172
I1
aI1
asVhttp://bit.ly/14RH6Sk
p173
(lp174
I1
aI3
asVhttp://vimeo.com/m/99603893
p175
(lp176
I1
aI3
asVhttp://nightmarenyc.com/nightmare-auditions/
p177
(lp178
I1
aI6
asVhttp://www.nydailynews.com/life-style/health/singing-show-tunes-helps-fight-dementia-study-article-1.1513903
p179
(lp180
I1
aI3
asVhttps://www.facebook.com/mitaephi?ref=stream
p181
(lp182
I1
aI5
asVhttp://www.youtube.com/watch?v=xiuzFNtki60
p183
(lp184
I1
aI2
asVhttp://www.youtube.com/watch?v=cvP7cnmxlLM
p185
(lp186
I1
aI2
asVhttp://moviepilot.com/posts/2015/01/09/quiz-can-you-guess-who-these-8-child-stars-all-grown-up-are-2568166?lt_source=external%2Cshare_fb
p187
(lp188
I1
aI0
asV/events/740367772704003/
p189
(lp190
I2
aI11
asVhttps://www.youtube.com/watch?v=lcOxhH8N3Bo
p191
(lp192
I1
aI1
asVhttp://www.sadanduseless.com/2014/07/shocked-animals/
p193
(lp194
I1
aI1
asVhttp://www.youtube.com/watch?v=__C2TSNJWhc
p195
(lp196
I1
aI2
asVhttp://www.timeout.jp/en/tokyo/feature/1950/88-things-to-do-in-Tokyo
p197
(lp198
I1
aI0
asVhttp://vimeo.com/m/93097933
p199
(lp200
I1
aI27
asVhttp://news.distractify.com/drake-vandy/the-23-most-awkward-names-in-existence/
p201
(lp202
I1
aI0
asVhttps://www.facebook.com/video.php?v=10154515719120105
p203
(lp204
I1
aI2
asVhttps://www.youtube.com/watch?v=V4LnorVVxfw
p205
(lp206
I1
aI2
asVhttp://www.today.com/entertainment/jimmy-fallon-adam-levine-bring-sinatra-azalea-more-tonight-1D80123427
p207
(lp208
I1
aI0
asVhttp://classfm.co/street
p209
(lp210
I1
aI5
asVhttp://www.theworldofchinese.com/2013/11/chinese-tattoos-gone-wrong/
p211
(lp212
I1
aI0
asVhttps://g.co/doodle/2m9q44
p213
(lp214
I1
aI0
asVhttps://www.facebook.com/video.php?v=350555301775650
p215
(lp216
I1
aI4
asVhttps://www.youtube.com/watch?v=ICNoDBU-QI8&feature=youtu.be
p217
(lp218
I1
aI9
asVhttp://9gag.com/gag/aEwqKmx?ref=fb.s
p219
(lp220
I1
aI0
asVhttp://www.sciencedirect.com/science/article/pii/S0001691814001577
p221
(lp222
I1
aI0
asVhttp://ismailignosis.com/2014/01/09/harvard-university-course-in-ismaili-history-and-thought-in-spring-2014/
p223
(lp224
I1
aI0
asVhttp://www.foodiggity.com/
p225
(lp226
I1
aI1
asVhttps://fbcdn-sphotos-g-a.akamaihd.net/hphotos-ak-xap1/v/t1.0-9/s130x130/10353091_10152521617588480_7586815374520618653_n.jpg?oh=d9e36607211d139279fba3520732144c&oe=55532A5C&__gda__=1431112679_b18207b08cd4c7156e9180ead4b49fbf
p227
(lp228
I2
aI78
asVhttps://www.youtube.com/watch?v=lWLleo7NKh8
p229
(lp230
I1
aI1
asVhttp://youtu.be/-ixRx4kOBPU
p231
(lp232
I1
aI3
asVhttps://www.youtube.com/watch?v=FLPLgJqeZJw
p233
(lp234
I1
aI4
asVhttp://www.enca.com/south-africa/eskom-diverting-power-botswana-sa-faces-blackouts
p235
(lp236
I1
aI3
asVhttps://www.facebook.com/humansofnewyork/photos/a.102107073196735.4429.102099916530784/572876566119781/?type=1
p237
(lp238
I1
aI13
asVhttp://www.buzzfeed.com/ontheregna/the-12-most-relatable-quotes-from-the-grinch-ewt3
p239
(lp240
I1
aI0
asVhttp://www.zimbio.com/quiz/CJQlMz7dD4A/Hunger+Games+Character?result=Hley-kw3nZO
p241
(lp242
I1
aI0
asVhttp://higirlsbensally.tumblr.com/post/106868008764/chromolume-jonathanlarson-shoutout-to-the
p243
(lp244
I1
aI2
asVhttp://www.news.cornell.edu/essentials/2014/10/making-splash
p245
(lp246
I1
aI1
asVhttps://www.facebook.com/video.php?v=1572272279580315
p247
(lp248
I1
aI1
asVhttps://www.facebook.com/RunnersWorld/posts/10151128873676987
p249
(lp250
I1
aI6
asVhttp://kotaku.com/assassins-creed-unity-has-the-best-glitches-1657939797
p251
(lp252
I1
aI4
asVhttps://www.facebook.com/3eesho.thaqafNafsak/photos/a.156840138646.116647.156816408646/10153134775683647/?type=1
p253
(lp254
I1
aI6
asVhttp://blog.naver.com/eovh0114?Redirect=Log&logNo=90170436846
p255
(lp256
I1
aI6
asVhttps://fbcdn-sphotos-e-a.akamaihd.net/hphotos-ak-xpf1/v/t1.0-9/s130x130/10301452_10152348150764242_6296157046436919219_n.jpg?oh=a2dd9603acc5ae269588f84389e75172&oe=55941C21&__gda__=1431254583_70aebd4e07b4730487a5d2d208e51288
p257
(lp258
I1
aI8
asVhttp://www.youtube.com/watch?v=6KeG_i8CWE8
p259
(lp260
I1
aI1
asVhttp://imgur.com/gallery/iUn4A
p261
(lp262
I1
aI2
asVhttp://cdn.iwastesomuchtime.com/929201415426.gif
p263
(lp264
I1
aI12
asVhttps://www.facebook.com/OfficialTrevorNoah/photos/a.462236777452.256139.65639912452/10152054617742453/?type=1
p265
(lp266
I1
aI7
asVhttps://www.facebook.com/video.php?v=706265542825695
p267
(lp268
I1
aI2
asVhttps://www.youtube.com/watch?v=U65XiWSsYwk
p269
(lp270
I1
aI4
asVhttp://www.firstthings.com/article/2014/11/majoring-in-fear
p271
(lp272
I1
aI14
asVhttp://edition.cnn.com/2014/03/01/world/europe/ukraine-politics/index.html?hpt=hp_t1
p273
(lp274
I1
aI4
asVhttp://www.youtube.com/watch?v=FkLU4SWALTI
p275
(lp276
I1
aI0
asVhttps://www.facebook.com/157700344254837/photos/a.725226107502255.1073741831.157700344254837/705930422765157/?type=1
p277
(lp278
I1
aI0
asVhttp://www.dnainfo.com/new-york/20130304/chinatown/fung-wah-bus-permanently-shut-down-for-safety-violations
p279
(lp280
I1
aI0
asVhttps://www.facebook.com/video.php?v=733444960055120
p281
(lp282
I1
aI2
asVhttps://www.facebook.com/9gag/photos/a.109041001839.105995.21785951839/10153004100026840/?type=1
p283
(lp284
I1
aI3
asVhttps://www.youtube.com/watch?v=nRckgn36lzY
p285
(lp286
I1
aI0
asVhttp://www.businessinsider.com/vermont-gubernatorial-debate-highlights-2014-10
p287
(lp288
I1
aI3
asVhttp://misterrad.tumblr.com/post/104682115982/time-to-sit-down
p289
(lp290
I1
aI4
asVhttp://slatestarcodex.com/2014/09/30/i-can-tolerate-anything-except-the-outgroup/
p291
(lp292
I1
aI7
asVhttps://www.youtube.com/watch?v=GJRGynQG2sI
p293
(lp294
I1
aI1
asVhttps://www.youtube.com/watch?v=6H6USR-cPwI
p295
(lp296
I1
aI1
asVhttp://www.buzzfeed.com/h2/fbsp/urbandecay/stages-of-procrastination-that-were-all-guilty-of?b=1
p297
(lp298
I1
aI1
asVhttps://www.facebook.com/video.php?v=820062751389312
p299
(lp300
I1
aI4
asVhttps://www.facebook.com/CHOICEandTRUTH/photos/a.202883853059033.60646.202859009728184/793601600653919/?type=1
p301
(lp302
I1
aI0
asV/events/595138487257820/
p303
(lp304
I1
aI6
asVhttp://www.buzzfeed.com/kmallikarjuna/10-reasons-sauron-is-actually-a-really-good-guy
p305
(lp306
I1
aI1
asVhttp://www.youtube.com/watch?v=ZTtjSj4PLgo
p307
(lp308
I1
aI3
asVhttp://news.yahoo.com/former-korean-comfort-women-u-troops-sue-own-104514461.html
p309
(lp310
I1
aI0
asVhttps://www.facebook.com/video.php?v=1045382992145940
p311
(lp312
I1
aI4
asVhttp://desafioinsper.tumblr.com/
p313
(lp314
I2
aI13
asVhttps://www.youtube.com/watch?v=aFgQ34b96_U
p315
(lp316
I1
aI2
asVhttp://www.law.nyu.edu/news/Chevron-Two-Step
p317
(lp318
I1
aI3
asVhttp://bzfd.it/1EZJfbr
p319
(lp320
I1
aI3
asVhttp://www.cbs.com/shows/late_late_show/video/EB3092E6-E3BA-C565-D9FB-61A317F94782/craig-ferguson-a-montage-of-monologues/
p321
(lp322
I1
aI2
asVhttps://www.youtube.com/watch?v=kxopViU98Xo
p323
(lp324
I1
aI2
asVhttp://imgur.com/gallery/8Dpb9g8
p325
(lp326
I1
aI1
asVhttp://www.barnesandnoble.com/w/how-to-win-friends-and-influence-people-dale-carnegie/1100370318?ean=9780671027032
p327
(lp328
I1
aI3
asVhttp://www.sportsnet.ca/hockey/nhl/follow-live-canadiens-vs-bruins-game-1/
p329
(lp330
I1
aI2
asVhttp://www.dailymail.co.uk/news/article-2247797/Twin-portraits-Quebec-photographer-Francois-Brunelle-takes-pictures-look-alikes.html
p331
(lp332
I1
aI1
asVhttp://www.youtube.com/watch?v=wFWI2sDZMJ4
p333
(lp334
I1
aI2
asVhttp://www.clickhole.com/quiz/who-gives-fuck-1318?utm_campaign=default&utm_medium=ShareTools&utm_source=twitter
p335
(lp336
I1
aI1
asVhttp://universityprimetime.com/100-best-academic-colleges-country/
p337
(lp338
I1
aI5
asVhttps://www.facebook.com/NightmareNYC/photos/a.10151543897772511.1073741826.26376692510/10152276546557511/?type=1
p339
(lp340
I1
aI4
asVhttp://www.theverge.com/2014/11/20/7254853/pitch-perfect-2-trailer
p341
(lp342
I1
aI0
asVhttps://soundcloud.com/azizigibson/crown-violet-prod-kamandi
p343
(lp344
I1
aI0
asVhttp://spoti.fi/12G0pNA
p345
(lp346
I1
aI17
asVhttp://apps.facebook.com/holidaycards/view/119259?ref=feed_send_card_img&from_id=9125218
p347
(lp348
I1
aI0
asVhttp://9gag.com/gag/aBKd1Y2?ref=fb.s
p349
(lp350
I1
aI0
asVhttp://alastairadversaria.wordpress.com/2013/03/11/rob-bell-and-don-draper-the-ad-mans-gospel/
p351
(lp352
I1
aI0
asVhttp://www.buzzfeed.com/lukebailey/lol-wizards?sub=3332458_3141786
p353
(lp354
I1
aI0
asVhttp://theswatlife.blogspot.com/2013/10/when-i-feel-like-shiti-dress-up.html
p355
(lp356
I1
aI0
asVhttp://www.centennial.org/sports/mswim/2013-14/releases/12-9-WeeklyRelease
p357
(lp358
I1
aI8
asVhttp://www.youtube.com/watch?v=MHVkTptPg_M&sns=fb
p359
(lp360
I1
aI4
asVhttp://ca.news.yahoo.com/blogs/daily-buzz/cnn-report-giant-hornets-puts-hong-kong-south-192532431.html
p361
(lp362
I1
aI0
asVhttp://www.hercampus.com/life/academics/25-signs-youre-so-over-semester
p363
(lp364
I1
aI4
asVhttps://scontent.xx.fbcdn.net/hphotos-frc3/v/t1.0-9/s130x130/526894_10151689927533736_1768913991_n.jpg?oh=f73b574dd2f4956b6a8d94dfe4430783&oe=558FBAFD
p365
(lp366
I1
aI11
asVhttp://youtu.be/bntfUA6TmLs
p367
(lp368
I1
aI6
asVhttps://www.facebook.com/grabbarsombryter/photos/a.226014824222077.1073741825.141528439337383/361809063975985/?type=1
p369
(lp370
I1
aI18
asVhttp://www.buzzfeed.com/mjs538/things-youll-see-only-in-china#.yxnow9wjO
p371
(lp372
I1
aI3
asVhttps://www.facebook.com/djsoulsister/photos/gm.670083739708194/10152916979239676/?type=1
p373
(lp374
I1
aI2
asVhttps://scontent.xx.fbcdn.net/hphotos-xap1/v/t1.0-9/s130x130/579790_10152541029135707_1010471112_n.jpg?oh=03d414adecbd2774e5a40d93bd8e7cad&oe=55558370
p375
(lp376
I1
aI28
asVhttps://www.facebook.com/video.php?v=767259816691705
p377
(lp378
I1
aI2
asVhttps://www.facebook.com/video.php?v=744525375630994
p379
(lp380
I1
aI0
asVhttp://vimeo.com/hotchkiss/httpvimeocomtaftday14
p381
(lp382
I1
aI4
asVhttp://u.pw/1x67kwH
p383
(lp384
I1
aI4
asVhttps://www.youtube.com/watch?v=wlwG6yE7Jt4
p385
(lp386
I1
aI3
asVhttp://iwastesomuchtime.com/on/?i=70031
p387
(lp388
I1
aI1
asVhttp://www.dailydot.com/opinion/reverse-racism-doesnt-exist/
p389
(lp390
I1
aI7
asVhttps://www.facebook.com/9gag/photos/a.109041001839.105995.21785951839/10150406814506840/?type=1
p391
(lp392
I1
aI7
asVhttp://www.youtube.com/watch?v=IDkqtL4l35s
p393
(lp394
I1
aI0
asVhttp://www.addictinginfo.org/2014/12/21/mike-myers-resurrects-dr-evil-to-send-north-korea-a-message-on-the-sony-hack-video/
p395
(lp396
I1
aI6
asVhttp://junkee.com/someone-invented-magic-and-it-is-freaking-us-out/14880
p397
(lp398
I1
aI1
asVhttp://bsl.io/1lGJVgM
p399
(lp400
I1
aI3
asVhttps://fbcdn-sphotos-c-a.akamaihd.net/hphotos-ak-xpa1/v/t1.0-9/s130x130/10537112_10152644164467196_1222073979449756446_n.jpg?oh=4e5b8b462a1aaa2bcfca44ad6f303bab&oe=554FB8FE&__gda__=1431113729_5dde014bacb015b247b03f54fe11d4a7
p401
(lp402
I1
aI10
asVhttp://www.youtube.com/watch?v=U3RSoSnStNw
p403
(lp404
I1
aI2
asVhttps://www.facebook.com/StupidVideos/photos/a.10150623269308461.385178.98485303460/10152359607188461/?type=1
p405
(lp406
I1
aI1
asVhttps://www.beautybuns.com/?gclid=cj0keqjwy_sgbrcxhsqc3prt8rqbeiqahi_9gc2rvy1zy0whier7zjapv7qfukczotbb4r56r4u6maiaaian8p8haq&mid=5792996
p407
(lp408
I1
aI9
asVhttp://bostinno.streetwise.co/2014/12/03/hashtag-gloves-invented-by-olin-college-students-after-watching-jimmy-fallon-sketch/
p409
(lp410
I1
aI1
asVhttps://events.membersolutions.com/event_detail.asp?content_id=49926
p411
(lp412
I1
aI3
asVhttps://www.facebook.com/video.php?v=443635009126723
p413
(lp414
I1
aI5
asVhttp://www.pitchperfectmovie.com/
p415
(lp416
I1
aI7
asVhttps://www.facebook.com/grabbarsombryter?ref=stream
p417
(lp418
I1
aI11
asVhttp://www.hulu.com/watch/628264
p419
(lp420
I1
aI2
asVhttp://www.nydailynews.com/news/national/texas-boy-suspended-bringing-ring-power-school-article-1.2099103
p421
(lp422
I1
aI1
asVhttps://www.youtube.com/watch?v=hFS8HG4bz18
p423
(lp424
I1
aI0
asVhttps://www.facebook.com/CampusKitchenWilliamandMary/photos/a.10151406957765539.528796.65736430538/10152831317715539/?type=1
p425
(lp426
I1
aI1
asVhttp://stitchandlocke.com/
p427
(lp428
I1
aI0
asVhttps://fbcdn-sphotos-e-a.akamaihd.net/hphotos-ak-xap1/v/t1.0-9/s130x130/1621894_10153077956249008_6092272230373863640_n.jpg?oh=5015da582ba2dcaa5e7a26bcf8fe01be&oe=5587887A&__gda__=1431278658_b34a1e6f38cb69a6a73f9975d4681381
p429
(lp430
I1
aI10
asVhttps://scontent.xx.fbcdn.net/hphotos-xfp1/v/t1.0-9/s130x130/10304644_10151989418606610_2106823771262777878_n.jpg?oh=1e79bca5ec2507f7f7dc614153efb625&oe=557E8428
p431
(lp432
I2
aI84
asVhttps://scontent.xx.fbcdn.net/hphotos-xap1/v/t1.0-9/s130x130/1535553_10152506410644008_911626831_n.jpg?oh=73d301f4dda78ebac47eb16e54cecfdc&oe=557E3C20
p433
(lp434
I1
aI0
asVhttp://reason.com/archives/2014/10/22/gamergate-part-2-videogames-meet-feminis
p435
(lp436
I1
aI0
asVhttp://www.youtube.com/watch?feature=player_embedded&v=JxLBRclUCro
p437
(lp438
I1
aI1
asVhttp://m.huffpost.com/us/entry/4854680
p439
(lp440
I1
aI1
asVhttps://www.facebook.com/mytime2vote/photos/a.176326335716346.47428.125842260764754/854119534603686/?type=1
p441
(lp442
I1
aI7
asVhttp://www.buzzfeed.com/miriamberger/this-is-what-street-harrasment-is-like-for-women-in-egypt#38m76jh
p443
(lp444
I1
aI1
asVhttp://img.breakingmuscle.com/sites/default/files/imagecache/full_width/images/bydate/20140129/url.jpg
p445
(lp446
I1
aI2
asVhttp://instinctmagazine.com/post/azealia-banks-so-what-if-im-homophobe-i-make-more-money-you
p447
(lp448
I2
aI18
asVhttps://www.facebook.com/chamonix.guide/photos/a.298902530320094.1073741826.298902483653432/330939313783082/?type=1
p449
(lp450
I1
aI1
asVhttp://vimeo.com/65533463
p451
(lp452
I1
aI6
asVhttp://thinkprogress.org/economy/2014/06/18/3450334/yo-app-tech-bubble/
p453
(lp454
I1
aI1
asVhttp://www.nytimes.com/2014/11/22/theater/blank-the-musical-is-a-diy-revue-at-new-world-stages.html?_r=1
p455
(lp456
I2
aI12
asVhttp://www.wimp.com/chimpanzeehugs/
p457
(lp458
I1
aI2
asVhttps://fbcdn-sphotos-h-a.akamaihd.net/hphotos-ak-xpf1/v/t1.0-9/s130x130/10155107_10152076849266588_484688755_n.jpg?oh=af4b79952a4ff7e8128e9e807301bc0f&oe=554C93ED&__gda__=1431394002_55976cbce8dc447774f6f983ddd17e54
p459
(lp460
I1
aI2
asV/events/651602811564929/
p461
(lp462
I1
aI0
asVhttps://www.youtube.com/watch?feature=player_embedded&v=41GHAV-HG4U
p463
(lp464
I1
aI1
asVhttp://www.huffingtonpost.com/2015/01/07/charlie-hebdo-cartoons-paris-french-newspaper-shooting_n_6429552.html?ir=Gay+Voices&ncid=fcbklnkushpmg00000050
p465
(lp466
I1
aI0
asVhttp://www.bubbletrouble2.net/
p467
(lp468
I1
aI0
asVhttp://www.imdb.com/title/tt2180411/
p469
(lp470
I1
aI2
asV/events/751860814885810/
p471
(lp472
I1
aI8
asVhttps://www.facebook.com/video.php?v=754692154607757
p473
(lp474
I1
aI2
asVhttp://act.watchdog.net/petitions/4230?share_ref=4iT978Tv9tg
p475
(lp476
I1
aI2
asVhttp://trisutto.com/the-weight-debate-nutrition-and-ironman/
p477
(lp478
I1
aI0
asVhttp://www.buzzfeed.com/kaylayandoli/the-leslie-knope-guide-to-get-you-through-finals-cqn5
p479
(lp480
I1
aI0
asVhttps://www.facebook.com/DudePerfect/photos/a.135676076497491.27127.133025843429181/969424003122690/?type=1
p481
(lp482
I1
aI9
asVhttps://www.facebook.com/MissREVOLutionaries/photos/a.367921429939084.89256.367732726624621/850769328320956/?type=1
p483
(lp484
I1
aI1
asVhttp://www.buzzfeed.com/mattbellassai/the-hottest-bearded-men-of-the-world-cup
p485
(lp486
I1
aI1
asVhttp://songza.com/listen/new-artists-to-watch-songza/
p487
(lp488
I1
aI1
asVhttp://us.movember.com/mospace/9841929
p489
(lp490
I13
aI26
asVhttps://www.facebook.com/urbancusp/photos/a.201198093272950.50063.162612440464849/834127673313319/?type=1
p491
(lp492
I1
aI5
asVhttps://fbcdn-sphotos-h-a.akamaihd.net/hphotos-ak-xpf1/v/t1.0-9/s130x130/10603543_10153077872789008_7263223190422277311_n.jpg?oh=3b80d01f4e27847b93923592597d4506&oe=555133F1&__gda__=1430804199_23c77ad3f852d0ce2e380397747c14ed
p493
(lp494
I1
aI6
asVhttp://magazine.good.is/articles/science-rules-antarctic-glacier-has-five-story-blood-red-waterfall-of-primodial-ooze
p495
(lp496
I1
aI3
asVhttp://apps.facebook.com/playfifthgrader/?utm_medium=FacebookWall&utm_campaign=wall_GameWon
p497
(lp498
I1
aI0
asVhttp://richkidsofinstagram.tumblr.com/
p499
(lp500
I1
aI0
asVhttps://vimeo.com/95243294
p501
(lp502
I1
aI2
asVhttps://vimeo.com/110367750
p503
(lp504
I1
aI3
asVhttp://energizect.enervee.com/
p505
(lp506
I1
aI0
asVhttp://25.media.tumblr.com/tumblr_maiikzIJAO1qe31lco1_1280.jpg
p507
(lp508
I1
aI0
asVhttp://www.jta.org/2014/10/05/arts-entertainment/the-jewish-dressmaker-fdr-turned-away
p509
(lp510
I1
aI0
asVhttp://www.lifebuzz.com/old-scrapbook/
p511
(lp512
I1
aI8
asVhttp://www.youtube.com/watch?v=bg8NS6s0fkw&sns=fb
p513
(lp514
I1
aI1
asVhttp://www.telegraph.co.uk/culture/books/10382588/The-most-spectacular-libraries-in-the-world.html?frame=2705748
p515
(lp516
I1
aI1
asVhttp://thegrio.com/2014/12/24/lapd-michael-brown-song/
p517
(lp518
I1
aI5
asVhttp://raniakhalek.com/2013/12/05/unarmed-man-shot-at-by-nypd-has-been-charged-with-assault-because-bullets-hit-bystanders/
p519
(lp520
I1
aI1
asVhttp://www.buzzfeed.com/rachelysanders/boozy-popsicles?bffbfood
p521
(lp522
I1
aI2
asVhttp://m.imgur.com/gallery/n01WW
p523
(lp524
I1
aI6
asVhttps://www.facebook.com/cornellsplash/posts/1496520637261722
p525
(lp526
I1
aI0
asVhttp://www.pbs.org/wgbh/masterpiece/watch-online/previews/wolf-hall-coming-april-2015/?elq=5d2a3852523244b280d59aa578d0b791&elqCampaignId=1173
p527
(lp528
I1
aI0
asVhttps://www.facebook.com/video.php?v=10151824099961135
p529
(lp530
I1
aI3
asVhttps://soundcloud.com/stavroz/stavroz-the-finishing
p531
(lp532
I1
aI2
asVhttp://www.ebaumsworld.com/pictures/view/84450795/
p533
(lp534
I1
aI3
asVhttp://mobilebeat2013-efbnen.eventbrite.com
p535
(lp536
I1
aI0
asVhttp://www.youtube.com/watch?v=LkUjYSTTkiM
p537
(lp538
I1
aI1
asVhttps://www.facebook.com/video.php?v=408318702620490
p539
(lp540
I1
aI7
asVhttp://fab.cba.mit.edu/classes/863.14/people/rachel_nations/index.html
p541
(lp542
I1
aI21
asVhttps://www.facebook.com/video.php?v=878206742244785
p543
(lp544
I1
aI1
asVhttp://www.buzzfeed.com/video/sararubin/change-the-way-you-look-at-introverts
p545
(lp546
I1
aI2
asVhttp://ibnlive.in.com/news/gone-viral-pantenes-new-commercial-condemns-gender-stereotypes/436911-77.html
p547
(lp548
I1
aI11
asVhttp://www.buzzfeed.com/mlew15/19-things-the-lord-of-the-rings-characters-were-h0se
p549
(lp550
I1
aI3
asVhttp://www.independent.co.uk/news/world/middle-east/saudi-preacher-who-raped-and-tortured-his-five-yearold-daughter-to-death-is-released-after-paying-blood-money-8480440.html
p551
(lp552
I1
aI1
asVhttp://bzfd.it/1mjuj1q
p553
(lp554
I1
aI0
asVhttp://www.huffingtonpost.com/keesha-beckford/words-of-wisdom-from-an-o_b_5192102.html
p555
(lp556
I1
aI2
asVhttp://u.pw/1K7bE37
p557
(lp558
I1
aI0
asVhttp://ewn.co.za/assets/loadshedding/capetown.html
p559
(lp560
I1
aI0
asVhttp://boston.barstoolsports.com/m/random-thoughts/dog-in-slow-motion-on-ice-sums-up-the-next-few-days-in-boston/
p561
(lp562
I1
aI2
asVhttp://dailyprincetonian.com/opinion/2015/01/letter-from-the-editor-3/
p563
(lp564
I1
aI728
asVhttps://www.facebook.com/musicproducerspot/photos/a.453376764798615.1073741833.259083727561254/548475778622046/?type=1
p565
(lp566
I1
aI1
asVhttps://scontent.xx.fbcdn.net/hphotos-xfp1/v/t1.0-9/s130x130/10928988_10152936098400250_7012482005292460179_n.jpg?oh=7e1d00771ed5b1b4f297f2cda50b83db&oe=55881384
p567
(lp568
I1
aI75
asVhttps://www.youtube.com/watch?v=58NNz8kaC_o
p569
(lp570
I1
aI0
asVhttps://www.facebook.com/video.php?v=281100158721165
p571
(lp572
I1
aI0
asVhttps://www.youtube.com/watch?v=nqi8tv4P7R4
p573
(lp574
I1
aI0
asVhttps://www.facebook.com/video.php?v=1084553858234339
p575
(lp576
I1
aI0
asVhttp://tabforacause.org/?r=11043245&c=12
p577
(lp578
I1
aI6
asVhttps://www.facebook.com/IFeakingLoveScience/photos/a.456449604376056.98921.367116489976035/1006834539337557/?type=1
p579
(lp580
I1
aI3
asVhttp://www.viralviralvideos.com/2013/11/11/moscow-subway-ticket-machine-accepts-30-squats-as-payment/#MtPeVFhZP8YDdEzm.01
p581
(lp582
I1
aI5
asVhttps://www.youtube.com/watch?v=DaeAj-HQnGA
p583
(lp584
I1
aI1
asVhttp://thoughtcatalog.com/anonymous/2014/04/34-ways-you-know-you-attended-a-new-england-boarding-school/#L3tBOJVDijaUYjRz.01
p585
(lp586
I1
aI21
asVhttp://www.fullbunnycontact.com/
p587
(lp588
I1
aI5
asVhttp://www.cosmopolitan.com/cosmo-latina/american-latina-problems
p589
(lp590
I1
aI1
asVhttp://www.iflscience.com/health-and-medicine/what-does-your-skin-look-under-uv-light
p591
(lp592
I1
aI0
asVhttps://fbcdn-sphotos-d-a.akamaihd.net/hphotos-ak-xpf1/v/t1.0-9/s130x130/10615519_10152699841398993_3422392416348332803_n.jpg?oh=3a6fcb59b1e47311425ac6c465d1df52&oe=554AC6D5&__gda__=1435778499_f818da1bbd486c316a59d32d94aad255
p593
(lp594
I1
aI0
asVhttp://u.pw/1JquWjz
p595
(lp596
I1
aI0
asVhttps://www.facebook.com/video.php?v=990757634281893
p597
(lp598
I1
aI2
asVhttps://www.youtube.com/watch?v=h1Z8a-5aHAc
p599
(lp600
I1
aI9
asVhttps://scontent.xx.fbcdn.net/hphotos-xfa1/v/t1.0-9/s130x130/217366_10151480740443386_1125953953_n.jpg?oh=b1397aaca8e7fa720a7026efa1da149c&oe=5553018E
p601
(lp602
I2
aI92
asVhttp://www.scmp.com/news/hong-kong/article/1660179/mainland-travel-ban-protesters-burning-bridges-hong-kong-youth
p603
(lp604
I1
aI1
asVhttp://bleacherreport.com/articles/2326266-marshawn-lynch-answers-every-question-with-im-thankful-after-playoff-win?utm_source=twitter.com&utm_medium=referral&utm_campaign=programming-national
p605
(lp606
I1
aI2
asVhttp://www.youtube.com/watch?v=E2RzKNCahRg
p607
(lp608
I1
aI1
asVhttp://www.gofundme.com/SD-for-Mariah?pc=fb_u_g
p609
(lp610
I1
aI1
asVhttp://www.clickhole.com/video/watch-big-bang-theory-more-laughter-added-1132
p611
(lp612
I1
aI0
asVhttps://fbcdn-sphotos-f-a.akamaihd.net/hphotos-ak-xfa1/v/t1.0-9/s130x130/306287_10150749589131737_1687851694_n.jpg?oh=6be6a3e9572ff71e72feb20aa98e37f8&oe=55907AE7&__gda__=1431222225_be27e7a55a04133da75cf435c659c440
p613
(lp614
I1
aI26
asVhttps://miter.mit.edu/the-unexotic-underclass/
p615
(lp616
I1
aI0
asVhttp://9gag.com/gag/apqwE8W
p617
(lp618
I1
aI0
asVhttp://ca.movember.com/mospace/3660933
p619
(lp620
I1
aI3
asVhttp://www.ted.com/talks/amanda_burden_how_public_spaces_make_cities_work
p621
(lp622
I1
aI1
asVhttps://twitter.com/AKSalmonProject/status/555141094283829249
p623
(lp624
I1
aI3
asVhttp://www.baeblemusic.com/musicblog/4-9-2014/The-5-Best-College-Music-Festivals-of-2014.html?fb_action_ids=10152079876932717&fb_action_types=og.likes
p625
(lp626
I1
aI6
asVhttp://www.theatlantic.com/education/archive/2013/12/the-evolution-of-the-college-library/282023/
p627
(lp628
I1
aI0
asVhttps://fbcdn-sphotos-g-a.akamaihd.net/hphotos-ak-xap1/v/t1.0-9/s130x130/1463220_10152506410564008_316649829_n.jpg?oh=666594d1c62f87e9002bbe4fb35b17c3&oe=558B710E&__gda__=1435515858_b0192407fc98d8d5b2a55c8e3cc3a172
p629
(lp630
I1
aI0
asVhttps://www.facebook.com/video.php?v=834770449866442
p631
(lp632
I1
aI2
asVhttp://vimeo.com/111103945
p633
(lp634
I1
aI6
asVhttp://www.clickhole.com/article/5-disney-princesses-reimagined-caucasian-698
p635
(lp636
I1
aI4
asVhttp://www.ussoccer.com/news/mens-national-team/2014/02/140201-mnt-2-kor-0.aspx
p637
(lp638
I1
aI0
asVhttps://www.facebook.com/CampusKitchenWilliamandMary/photos/a.10151406957765539.528796.65736430538/10152843723755539/?type=1
p639
(lp640
I1
aI1
asVhttps://www.facebook.com/CulturesOfResistance/photos/a.419887056652.198212.236643721652/10152420385221653/?type=1
p641
(lp642
I1
aI17
asVhttp://www.buzzfeed.com/bordeauxwines/wine-hacks-every-twentysomething-should-know
p643
(lp644
I1
aI1
asVhttp://entertainment.time.com/2013/11/16/cbs-greenlights-how-i-met-your-mother-spinoff/
p645
(lp646
I1
aI0
asVhttp://espn.go.com/nba/story/_/id/11203027/lebron-james-says-returning-cleveland-cavaliers
p647
(lp648
I1
aI4
asVhttps://princeton.heliosvoting.org/helios/elections/8386b1aa-78fe-11e4-9b3c-6615b21e21c3/view
p649
(lp650
I1
aI74
asVhttp://www.muscleandfitness.com/news-and-features/athletes-and-celebrities/competitive-eater-tries-rocks-epic-cheat-meal
p651
(lp652
I1
aI0
asVhttp://www.zazzle.com/clown_college_dark_tee_shirt-235014322335562807
p653
(lp654
I1
aI2
asVhttp://member-site.net/?PT--Mcww
p655
(lp656
I2
aI7
asVhttp://www.hauntedhousenyc.com/
p657
(lp658
I1
aI7
asVhttp://www.youtube.com/watch?v=DeQqe0oj5Ls
p659
(lp660
I1
aI0
asVhttps://www.youtube.com/watch?v=NbMJ1JFMMSM
p661
(lp662
I1
aI0
asVhttp://welcome.pushforpizza.com/
p663
(lp664
I1
aI0
asVhttps://www.youtube.com/watch?x-yt-cl=85114404&v=q9MKRQ-xh0A&feature=player_embedded&x-yt-ts=1422579428
p665
(lp666
I1
aI2
asVhttps://www.facebook.com/MANDATORY/photos/a.251564004947905.47255.205523986218574/563713163732986/?type=1
p667
(lp668
I1
aI1
asVhttps://www.facebook.com/video.php?v=227763860743706
p669
(lp670
I1
aI3
asVhttp://www.bustle.com/articles/46425-fireball-whiskey-has-been-recalled-in-finland-because-it-has-too-much-of-a-type-of
p671
(lp672
I1
aI0
asVhttps://soundcloud.com/serranocarlos/2pac-vs-banks-thugz-drowning-carlos-serrano-mix
p673
(lp674
I1
aI2
asVhttp://www.youtube.com/watch?v=LKeU8ruo1K0&feature=share
p675
(lp676
I1
aI0
asVhttp://liveathos.com/content/appflow
p677
(lp678
I1
aI1
asVhttp://www.buzzfeed.com/mrloganrhoades/22-examples-of-the-most-gangsta-sht-that-has-ever-happened?bffb
p679
(lp680
I1
aI1
asVhttp://m.xojane.com/sex/duke-university-freshman-porn-star
p681
(lp682
I1
aI9
asVhttp://www.buzzfeed.com/route95/why-i-dont-want-to-hear-both-sides-of-rape-cases
p683
(lp684
I1
aI5
asVhttp://washingtonsquarelocal.com/nyu-spends-1-billion-to-build-nicer-financial-aid-office/
p685
(lp686
I1
aI2
asVhttps://www.facebook.com/video.php?v=653198151430705
p687
(lp688
I1
aI6
asVhttp://www.vox.com/2014/12/5/7341973/trauma-rape-allegation-uva
p689
(lp690
I1
aI6
asVhttps://www.facebook.com/video.php?v=845313318830805
p691
(lp692
I1
aI4
asVhttp://www.youtube.com/watch?v=U76Nde6rMTw
p693
(lp694
I1
aI2
asVhttps://www.facebook.com/video.php?v=638082652900136
p695
(lp696
I1
aI9
asVhttps://www.facebook.com/Upworthy/photos/a.367249613315903.85664.354522044588660/950214631686062/?type=1
p697
(lp698
I1
aI3
asVhttps://www.facebook.com/mitaephi/photos/a.702232486563325.1073741828.672580009528573/702232189896688/?type=1
p699
(lp700
I1
aI1
asVhttp://what-would-i-say.com/
p701
(lp702
I8
aI9
asVhttps://www.facebook.com/CampusKitchenWilliamandMary/photos/a.10151406957765539.528796.65736430538/10152717416620539/?type=1
p703
(lp704
I1
aI0
asVhttp://news.distractify.com/fun/animals-fun/the-best-boops-of-all-time-this-is-my-new-favorite-thing-lol/?v=1
p705
(lp706
I1
aI0
asVhttps://www.yahoo.com/health/why-ramen-noodles-could-cut-your-life-short-94747327572.html
p707
(lp708
I1
aI0
asVhttp://www.teambackpack.net/kendrick-lamar-debuts-a-new-song-on-the-colbert-report/
p709
(lp710
I1
aI0
asVhttps://www.facebook.com/9gag/photos/a.109041001839.105995.21785951839/10152738517651840/?type=1
p711
(lp712
I1
aI7
asVhttp://www.ft.com/cms/s/0/8002c836-0c42-11e3-8f77-00144feabdc0.html
p713
(lp714
I1
aI1
asVhttps://www.youtube.com/watch?v=UnW3xkHxIEQ
p715
(lp716
I1
aI1
asVhttps://www.bikereg.com/mansfield-hollow-cyclocross
p717
(lp718
I1
aI3
asVhttp://jalopnik.com/this-is-the-most-embarrassing-plane-pooping-story-ever-1456846301/@maxread
p719
(lp720
I1
aI1
asVhttp://www.youtube.com/watch?v=kqdYzQTqTFo
p721
(lp722
I1
aI0
asVhttp://www.africa.upenn.edu/Articles_Gen/Letter_Birmingham.html
p723
(lp724
I1
aI4
asVhttps://www.youtube.com/watch?v=meKhfr_CjQ0
p725
(lp726
I1
aI1
asVhttps://www.facebook.com/video.php?v=10152751786010095
p727
(lp728
I1
aI0
asVhttp://www.isitdownrightnow.com/netflix.com.html
p729
(lp730
I1
aI0
asVhttp://m.youtube.com/watch?v=GJ6YPquq1UQ
p731
(lp732
I1
aI7
asVhttp://www.buzzfeed.com/video/elyjahwilbur/tall-people-problems
p733
(lp734
I1
aI0
asVhttp://gizmodo.com/meet-the-drone-thats-guiding-new-students-around-mit-t-1294335491
p735
(lp736
I1
aI0
asVhttp://www.runnersworld.com/general-interest/lance-armstrong-tries-beer-mile-does-not-finish
p737
(lp738
I1
aI4
asVhttp://youtu.be/QK0dGU14mIY
p739
(lp740
I1
aI24
asVhttp://espn.go.com/sportsnation/post/_/id/11278289/you-probably-watch-crazy-table-tennis-rally-commonwealth-games
p741
(lp742
I1
aI2
asVhttp://elitedaily.com/humor/drunk-british-guy-singing-angel-shaggy-impression-youll-ever-hear-video/700539/
p743
(lp744
I1
aI1
asVhttp://blog.niche.com/2014/01/niches-top-25-high-schools-by-satact/
p745
(lp746
I1
aI3
asVhttp://www.huffingtonpost.com/2014/10/30/college-flu-shots_n_6054946.html?ncid=fcbklnkushpmg00000020&ir=Education
p747
(lp748
I1
aI2
asVhttps://www.youtube.com/watch?v=KKDVQqSfGbE
p749
(lp750
I1
aI0
asVhttp://bzfd.it/1lPQgGK
p751
(lp752
I1
aI0
asVhttp://bleacherreport.com/articles/2130997-former-ncaa-gymnast-becomes-first-woman-to-finish-american-ninja-warrior-course
p753
(lp754
I1
aI6
asVhttps://www.youtube.com/watch?v=MXg6Usdjl5c
p755
(lp756
I1
aI0
asVhttps://www.facebook.com/video.php?v=10154562382645621
p757
(lp758
I1
aI12
asVhttp://www.buzzfeed.com/mrloganrhoades/43-tumblr-comments-that-make-you-go-hmmmm
p759
(lp760
I1
aI1
asVhttps://youtu.be/ZuWwRYxK-r0
p761
(lp762
I1
aI4
asVhttp://the-toast.net/2015/02/09/stanley-tucci-boyfriend/
p763
(lp764
I1
aI4
asVhttp://youtu.be/vLWwFt-SnbA
p765
(lp766
I1
aI2
asVhttp://rare.us/story/stop-looking-at-your-phones-a-lesson-from-the-britishes/#kdM4ZA95THjC7VyW.01
p767
(lp768
I1
aI2
asVhttp://m.youtube.com/watch?v=HhabgvIIXik&sns=fb&desktop_uri=%2Fwatch%3Fv%3DHhabgvIIXik%26sns%3Dfb
p769
(lp770
I1
aI0
asVhttps://www.facebook.com/vibrationradio/photos/a.458453430837.244800.25532495837/10152111973305838/?type=1
p771
(lp772
I1
aI2
asVhttp://qz.com/250701/12-things-white-people-can-do-now-because-ferguson?utm_content=buffercc74a&utm_medium=social&utm_source=facebook.com&utm_campaign=buffer
p773
(lp774
I1
aI9
asVhttps://fbcdn-sphotos-b-a.akamaihd.net/hphotos-ak-xfp1/v/t1.0-9/s130x130/10678859_10152742446319887_5813407148410365970_n.jpg?oh=4bd3c1b19735baeeb13cfda467ba7410&oe=55814CC3&__gda__=1435351098_90575bba0092da9f2cfdb46909db8f32
p775
(lp776
I1
aI25
asVhttps://www.youtube.com/watch?v=lmI4sGC-Ewg
p777
(lp778
I1
aI2
asVhttps://www.facebook.com/video.php?v=855130201194798
p779
(lp780
I1
aI2
asVhttps://www.facebook.com/video.php?v=720034848069368
p781
(lp782
I1
aI3
asVhttp://www.upi.com/Entertainment_News/2014/03/05/Harry-Styles-considered-for-Wicked-role/4771394048646/
p783
(lp784
I1
aI0
asVhttp://www.newstatesman.com/laurie-penny/on-nerd-entitlement-rebel-alliance-empire
p785
(lp786
I1
aI14
asVhttps://www.youtube.com/watch?v=e99SkdcB2UU
p787
(lp788
I1
aI1
asVhttp://www.youtube.com/watch?v=BhKaedPTtTg
p789
(lp790
I1
aI0
asVhttp://www.dailymail.co.uk/news/article-2731967/EPA-reveals-toxic-waste-problem-mystery-employee-smears-human-waste-menstrual-blood-walls-Denver-office-clogs-toilets-urinates-floor.html
p791
(lp792
I1
aI0
asVhttps://www.youtube.com/watch?v=iv-8-EgPEY0
p793
(lp794
I1
aI4
asVhttps://www.youtube.com/watch?v=gpyYc9VckVs
p795
(lp796
I1
aI9
asVhttps://www.youtube.com/watch?v=onQLAEEeta8
p797
(lp798
I1
aI1
asVhttp://www.oregonlive.com/portland/index.ssf/2014/12/the_struggle_to_stay_lewis_cla.html#incart_river
p799
(lp800
I1
aI16
asVhttp://veja.abril.com.br/noticia/educacao/mec-aprova-cursos-de-engenharia-do-insper--2
p801
(lp802
I1
aI21
asVhttp://youtu.be/yJ7-v7xVm3I
p803
(lp804
I1
aI1
asVhttp://www.buzzfeed.com/declancashin/all-work-and-snow-play
p805
(lp806
I1
aI0
asVhttp://www.buzzfeed.com/juliapugachevsky/a-coodle-doodle-doo?bftw&utm_term=4ldqpfp#41eb9mq
p807
(lp808
I1
aI2
asVhttps://scontent.xx.fbcdn.net/hphotos-xpa1/v/t1.0-9/s130x130/10931011_10153034892694910_5407313675959767789_n.jpg?oh=e6dc5c4a3cdb1903fe67e159324e9522&oe=558B50EE
p809
(lp810
I1
aI23
asVhttp://www.buzzfeed.com/erinchack/erin
p811
(lp812
I1
aI0
asVhttps://www.youtube.com/watch?v=_MC3XuMvsDI
p813
(lp814
I1
aI2
asVhttps://www.facebook.com/video.php?v=520778861358527
p815
(lp816
I1
aI0
asVhttp://www.foodbeast.com/news/you-must-sign-a-release-for-this-8000-calorie-breakfast/
p817
(lp818
I1
aI17
asVhttp://blogs.citypages.com/food/2015/01/chipotle_offers_free_food_on_january_26th.php
p819
(lp820
I1
aI12
asVhttps://www.facebook.com/video.php?v=922926901051745
p821
(lp822
I1
aI0
asVhttp://www.youtube.com/attribution_link?a=ERoH6ZbiLIA&u=%2Fwatch%3Fv%3Ddru8km54dAg%26feature%3Dshare
p823
(lp824
I1
aI0
asVhttp://www.buzzfeed.com/pennzoil/road-trips-you-need-to-take-this-summer
p825
(lp826
I1
aI1
asVhttps://www.facebook.com/video.php?v=10152145208197599
p827
(lp828
I1
aI3
asVhttp://www.incrediblethings.com/video/chinese-music-video-every-kind-wtf
p829
(lp830
I1
aI6
asVhttp://www.buzzfeed.com/tasmaiuppin/friends-and-himym-are-literally-the-same#245721
p831
(lp832
I1
aI0
asVhttp://video-battle.com/video/probably-hilarious-ping-pong-match-history/
p833
(lp834
I1
aI0
asVhttp://www.eventbrite.com/e/10000-bisc-tickets-13719139315
p835
(lp836
I1
aI0
asVhttp://youtu.be/hD7F2Jmmgm8
p837
(lp838
I1
aI1
asVhttps://www.facebook.com/Adventuremarathon/photos/a.323543707700471.75807.131409013580609/706965399358298/?type=1
p839
(lp840
I1
aI1
asVhttp://www.buzzfeed.com/chelseamarshall/the-story-of-christmas-as-told-by-sloths
p841
(lp842
I1
aI0
asVhttp://www.ozy.com/good-sht/the-secret-to-baking-the-best-chocolate-cookie-science/6613.article?utm_source=HF1&utm_medium=pp&utm_campaign=pp
p843
(lp844
I1
aI0
asVhttp://www.upworthy.com/a-model-was-asked-to-take-her-clothes-off-so-we-could-hear-what-was-underneath?g=3&c=ufb1
p845
(lp846
I1
aI3
asVhttps://www.youtube.com/watch?v=5S6U_krabrk
p847
(lp848
I1
aI0
asVhttp://www.quizwow.com/quiz-start/?quizid=can-you-name-11-us-states-by-shape&quiztype=1time%3D10&shareid=3
p849
(lp850
I1
aI1
asVhttp://mitsha.re/1lQIWee
p851
(lp852
I1
aI13
asVhttp://www.movoto.com/new-haven-ct/move-to-new-haven/
p853
(lp854
I1
aI2
asVhttp://www.nytimes.com/2014/08/31/sports/football/johnny-manziels-arrival-in-cleveland-has-fans-envisioning-a-browns-renaissance.html?ref=sports
p855
(lp856
I1
aI0
asVhttps://www.youtube.com/watch?v=0-3SIsHrRYQ
p857
(lp858
I1
aI1
asVhttps://www.facebook.com/video.php?v=10152416958167569
p859
(lp860
I1
aI8
asVhttps://www.youtube.com/watch?v=lXKDu6cdXLI
p861
(lp862
I1
aI1
asV/events/534720023337068/
p863
(lp864
I1
aI4
asVhttp://vimeo.com/99933298
p865
(lp866
I1
aI4
asVhttps://scontent.xx.fbcdn.net/hphotos-xfa1/v/l/t1.0-9/s130x130/10534750_10152647065800409_7256089771131971959_n.jpg?oh=50dc8922dbd8e194d926dbc0d4a51dd8&oe=55832217
p867
(lp868
I1
aI6
asVhttps://www.facebook.com/video.php?v=849751445046215
p869
(lp870
I1
aI4
asVhttp://youtu.be/H9gEEQNoCpA
p871
(lp872
I1
aI1
asVhttp://youtu.be/k4Oz8UmUXbg
p873
(lp874
I1
aI0
asVhttp://www.esquire.com/_mobile/blogs/culture/better-call-saul-review
p875
(lp876
I1
aI0
asVhttp://www.cnn.com/2014/09/28/travel/world-architecture-festival-2014/index.html
p877
(lp878
I1
aI1
asVhttp://bzfd.it/TUbOFx
p879
(lp880
I1
aI0
asVhttps://www.youtube.com/watch?v=KHMlZxG339Y
p881
(lp882
I1
aI1
asVhttps://scontent.xx.fbcdn.net/hphotos-xpf1/v/t1.0-9/s130x130/10959773_10152953579735865_7961800103766942585_n.jpg?oh=f45e58544318be81d821927382bd9821&oe=5588A264
p883
(lp884
I1
aI7
asVhttp://www.buzzfeed.com/skelliebat/25-signs-your-harry-potter-obsession-is-out-of-con-19ayr#.ihNLPB027
p885
(lp886
I1
aI0
asVhttp://www.buzzfeed.com/sarahaspler/17-moments-when-paris-geller-from-gilmore-girls-f6ih
p887
(lp888
I1
aI0
asVhttps://www.youtube.com/watch?v=RwPR0q5es0A
p889
(lp890
I1
aI0
asVhttps://scontent.xx.fbcdn.net/hphotos-xpf1/v/t1.0-9/s130x130/10443540_10152655694168231_5112320881823375448_n.jpg?oh=a94a5d0508f18edea4709db8c4898eb3&oe=55541E81
p891
(lp892
I1
aI6
asVhttp://www.engadget.com/2014/11/05/jawbone-up-move/
p893
(lp894
I1
aI33
asVhttps://vine.co/v/h6LQLjOJtME
p895
(lp896
I1
aI0
asVhttps://soundcloud.com/tuan-vu-35/diplo-and-friends-2014-08-102z
p897
(lp898
I1
aI1
asVhttp://blazepress.com/2015/01/digital-projection-mapping-turns-forest-floor-glowing-wonderland/
p899
(lp900
I1
aI1
asVhttps://www.youtube.com/watch?v=AgFeZr5ptV8
p901
(lp902
I1
aI10
asVhttps://fbcdn-sphotos-h-a.akamaihd.net/hphotos-ak-xpa1/v/t1.0-9/s130x130/10906332_10153504082454008_568174733259405042_n.jpg?oh=e590dcfa3c0c05e9fb2205028df26882&oe=55833365&__gda__=1430987936_47c2bdcdcd42f5bb7decbfcbb1b4700c
p903
(lp904
I1
aI13
asVhttps://www.facebook.com/video.php?v=10152349820043878
p905
(lp906
I1
aI1
asVhttp://orlofsky.tumblr.com/post/89010351191
p907
(lp908
I1
aI2
asVhttps://www.facebook.com/video.php?v=265017316996116
p909
(lp910
I1
aI0
asVhttp://www.amazon.com/dp/B008H3GZL0/ref=tsm_1_fb_lk
p911
(lp912
I1
aI2
asVhttp://www.thenewcivilrightsmovement.com/davidbadash/barack_obama_tells_congress_same_sex_marriage_is_a_civil_right
p913
(lp914
I1
aI10
asVhttp://www.buzzfeed.com/samstryker/live-every-week-like-its-shark-week
p915
(lp916
I1
aI3
asVhttp://thoughtcatalog.com/charlie-shaw/2014/05/31-graders-of-ap-tests-share-the-most-ridiculous-answers-theyve-come-across/#zMQ3Rgq8u2oatQB2.01
p917
(lp918
I1
aI0
asVhttp://www.buzzfeed.com/jessicamisener/things-youll-never-be-able-to-do?bffb
p919
(lp920
I1
aI1
asVhttps://www.facebook.com/codecademy
p921
(lp922
I1
aI0
asVhttp://www.youtube.com/watch?v=PKffm2uI4dk
p923
(lp924
I1
aI2
asVhttp://www.buzzfeed.com/andreborges/one-ring-to-rule-them-all-explained#.lv5pJ4xeD
p925
(lp926
I1
aI3
asVhttp://9gag.com/gag/aVOr3g2
p927
(lp928
I1
aI0
asVhttps://www.facebook.com/paz/photos/a.462264797743.253604.184431752743/10152354795642744/?type=1
p929
(lp930
I1
aI8
asVhttps://www.youtube.com/watch?v=UD8tGWIqA-c
p931
(lp932
I1
aI0
asVhttp://www.reddit.com/r/funny/comments/2gw5ny/forgot_i_had_a_dentist_appointment_and_didnt_have/
p933
(lp934
I1
aI2
asVhttp://www.youtube.com/watch?v=Iqv1-Ac4Xm8
p935
(lp936
I1
aI0
asVhttp://cpatheatricals.org/2014/composer-teams-sought/
p937
(lp938
I3
aI1
asVhttp://9gag.com/gag/aj6n25p
p939
(lp940
I1
aI2
asVhttp://www.reddit.com/r/musictheory/comments/1e8qju/ap_theory_kids_was_there_k_pop_this_year/
p941
(lp942
I1
aI1
asVhttp://www.youtube.com/watch?v=e99SkdcB2UU
p943
(lp944
I1
aI1
asVhttp://www.buzzfeed.com/rachelzarrell/hot-guys-with-four-eyes
p945
(lp946
I1
aI0
asVhttps://scontent.xx.fbcdn.net/hphotos-xpf1/v/t1.0-9/s130x130/10252063_10153169437062306_6518097872818418722_n.jpg?oh=350a10037b14b80eeeb6a0bd512978c4&oe=5594F2A1
p947
(lp948
I1
aI46
asVhttp://www.mindbodygreen.com/0-16168/i-havent-made-any-trash-in-2-years-heres-what-my-life-is-like.html
p949
(lp950
I1
aI3
asVhttp://m.youtube.com/watch?v=EcoJ588qcNY&feature=youtu.be
p951
(lp952
I1
aI0
asVhttp://web.mit.edu/~mtg/www/TicketReservations.html
p953
(lp954
I1
aI6
asVhttp://www.buzzfeed.com/daves4/the-absolute-worst-things-in-the-world?s=mobile
p955
(lp956
I1
aI0
asVhttp://i.imgur.com/up9wfHE.jpg
p957
(lp958
I1
aI1
asVhttp://www.buzzfeed.com/catesevilla/what-kind-of-a-bitch-are-you?s=mobile
p959
(lp960
I1
aI1
asVhttp://www.imgur.com/a/hot8K
p961
(lp962
I1
aI2
asVhttp://i.imgur.com/1Zt2eJC.jpg
p963
(lp964
I1
aI3
asVhttp://elitedaily.com/sports/soccer-legend-dresses-up-as-old-man-and-shocks-everyone-at-the-park-video/620730/
p965
(lp966
I1
aI4
asVhttps://soundcloud.com/serranocarlos/nas-vs-flume-made-you-hold-on-carlos-serrano
p967
(lp968
I1
aI1
asVhttp://io9.com/what-you-need-to-know-about-getting-magnetic-finger-imp-813537993
p969
(lp970
I1
aI0
asVhttp://www.buzzfeed.com/ariannarebolini/oddball-portraits-of-your-favorite-comedians#3mzhx94
p971
(lp972
I1
aI3
asVhttp://themetapicture.com/when-they-brought-these-wolves/
p973
(lp974
I1
aI0
asVhttp://www.worldstarhiphop.com/videos/video.php?v=wshho65h1RcfTwv66W3O
p975
(lp976
I1
aI0
asVhttps://medium.com/@bhalp1/here-are-some-pictures-of-cats-e51a113d64c0
p977
(lp978
I1
aI3
asVhttps://www.youtube.com/watch?v=GIUA6iFQ8so
p979
(lp980
I1
aI0
asVhttps://www.facebook.com/SeattleOpera/photos/a.102275646037.113604.90753776037/10153136363856038/?type=1
p981
(lp982
I1
aI3
asVhttps://scontent.xx.fbcdn.net/hphotos-xfp1/v/t1.0-9/s130x130/1476503_10151804509118061_740057812_n.jpg?oh=15a18e5a16bf2f7ad9418f87ad342645&oe=55496C48
p983
(lp984
I1
aI4
asVhttp://itsonrapists.wordpress.com/
p985
(lp986
I1
aI25
asVhttps://www.youtube.com/watch?v=KOBVHdrfOkY
p987
(lp988
I1
aI0
asVhttp://youtu.be/IJ5uaesvr7I
p989
(lp990
I1
aI3
asVhttps://scontent.xx.fbcdn.net/hphotos-xpf1/v/t1.0-9/p130x130/1016871_10152849067298535_4097520766237415758_n.jpg?oh=ff11f1edc1bcb656c8cdaa9a5b71db95&oe=5594B07E
p991
(lp992
I1
aI17
asVhttp://www.youtube.com/watch?v=ma9I9VBKPiw
p993
(lp994
I1
aI2
asVhttp://www.youtube.com/watch?v=O-zpOMYRi0w
p995
(lp996
I1
aI0
asVhttps://www.facebook.com/CampusKitchenWilliamandMary/photos/a.10151406957765539.528796.65736430538/10152675041300539/?type=1
p997
(lp998
I1
aI3
asVhttp://cryingnewyork.tumblr.com/
p999
(lp1000
I1
aI0
asVhttp://slate.me/1qVl6k6
p1001
(lp1002
I1
aI0
asVhttp://imgfave.com/view/4788310
p1003
(lp1004
I1
aI2
asVhttps://www.facebook.com/Salinasnyc/photos/a.145606635510322.31678.143948992342753/555730261164622/?type=1
p1005
(lp1006
I1
aI0
asVhttp://www.buzzfeed.com/mlew15/21-times-aragorn-from-lord-of-the-rings-had-bett-h0se
p1007
(lp1008
I1
aI2
asVhttps://www.facebook.com/video.php?v=748156028553293
p1009
(lp1010
I1
aI7
asVhttp://www.buzzfeed.com/jessicamisener/21-jokes-so-stupid-theyre-actually-funny?bffb
p1011
(lp1012
I1
aI2
asVhttp://m.edinburghnews.scotsman.com/news/edinburgh-university-give-library-card-to-cat-1-3632114
p1013
(lp1014
I1
aI0
asVhttps://www.facebook.com/video.php?v=832971473434979
p1015
(lp1016
I1
aI1
asVhttps://m.facebook.com/sharer.php?u=http%3A%2F%2Fwww.mtv.com%2Fvideos%2Fmovies%2F1068218%2Fkermit-the-frog-tells-us-about-his-secret-audition-for-the-avengers.jhtml%3Fxrs%3Dplayershare_fbshare&_rdr
p1017
(lp1018
I1
aI0
asVhttp://gifs.gifbin.com/15g6454656.gif
p1019
(lp1020
I1
aI1
asVhttps://www.facebook.com/10mall/photos/a.129639040447433.31122.102703723140965/749917381752926/?type=1
p1021
(lp1022
I1
aI0
asVhttp://www.youtube.com/watch?v=SVaD8rouJn0
p1023
(lp1024
I1
aI0
asVhttps://www.facebook.com/theGrilleatMidd/photos/a.507209602634813.107026.211392945549815/691681820854256/?type=1
p1025
(lp1026
I1
aI0
asVhttps://scontent.xx.fbcdn.net/hphotos-xfa1/v/l/t1.0-9/s130x130/1003849_10151992810309008_384321396_n.jpg?oh=fdc04a87e79722b6f4d80d28a576ede6&oe=55815B9A
p1027
(lp1028
I1
aI5
asVhttp://unlock4mobile.com/
p1029
(lp1030
I1
aI0
asVhttps://www.facebook.com/usauncut/photos/a.190167221017767.44131.186219261412563/888748661159616/?type=1
p1031
(lp1032
I1
aI7
asVhttp://www.theguardian.com/travel/2015/feb/03/lets-go-to-leicester-weekend-breaks-comedy-festival
p1033
(lp1034
I1
aI1
asVhttps://www.youtube.com/watch?v=q8fHwMbdI90
p1035
(lp1036
I1
aI0
asVhttps://www.youtube.com/watch?v=o011Uuqe_Q4
p1037
(lp1038
I1
aI0
asVhttp://www.theonion.com/articles/pretty-cute-watching-boston-residents-play-daily-g,31554/?utm_source=Facebook&utm_medium=SocialMarketing&utm_campaign=LinkPreview%3ANA%3AInFocus
p1039
(lp1040
I1
aI0
asVhttps://scontent.xx.fbcdn.net/hphotos-xfp1/v/t1.0-9/s130x130/6805_10152557133681508_4516987551367225747_n.jpg?oh=a98696dc030b7ea34b4c0090cadfd9d2&oe=557E3C4A
p1041
(lp1042
I1
aI17
asVhttps://www.youtube.com/watch?v=lNbIh8BtfkY
p1043
(lp1044
I1
aI3
asVhttp://skreened.com/texttees/i-don-t-run
p1045
(lp1046
I1
aI2
asVhttp://youtu.be/iYY5iiesHCs
p1047
(lp1048
I1
aI1
asVhttp://bostinno.streetwise.co/2014/07/03/edward-fiskes-list-of-2015-best-buy-schools-olin-college-of-engineering/
p1049
(lp1050
I1
aI3
asS'num_links'
p1051
I620
sVhttps://scontent.xx.fbcdn.net/hphotos-xpf1/v/t1.0-9/q83/s130x130/10291083_10152201599433964_6886304994962011223_n.jpg?oh=3d579282a1453f67c0fe8b5000183e87&oe=558466EB
p1052
(lp1053
I1
aI30
asVhttp://empirestatebuilding.offerpop.com/campaign/640198/entry/4229191
p1054
(lp1055
I1
aI2
asVhttps://www.facebook.com/video.php?v=10152715877082734
p1056
(lp1057
I1
aI2
asVhttp://cafe.daum.net/CYsinbaram37
p1058
(lp1059
I1
aI20
asVhttp://youtu.be/QX3UEGFrINI
p1060
(lp1061
I1
aI0
asVhttp://www.threadcitycyclers.com/cyclocross/GeneralInfo2.pdf
p1062
(lp1063
I1
aI12
asVhttps://www.youtube.com/watch?v=RFinNxS5KN4#t=150
p1064
(lp1065
I1
aI2
asVhttp://mashable.com/2014/12/29/friends-netflix-guide/?utm_cid=mash-com-fb-main-link
p1066
(lp1067
I1
aI2
asVhttps://www.facebook.com/cornellsplash/photos/a.1509453105968475.1073741829.1474920642755055/1509453162635136/?type=1
p1068
(lp1069
I1
aI1
asVhttps://www.facebook.com/video.php?v=10152750781796558
p1070
(lp1071
I1
aI1
asVhttps://scontent.xx.fbcdn.net/hphotos-ash2/v/t1.0-9/s130x130/578064_10151376171911973_1728663790_n.jpg?oh=4e305128537b6961c8fee4831939c765&oe=558421D0
p1072
(lp1073
I1
aI6
asVhttp://apps.facebook.com/candycrush/?urlMessage=X01TPWelfpJppdAVyycEoZlxvILNLY-su8n1Cc5u7YM%3AMSMxNDk1MjU1NTU1MzQjMTIxOTYyMzYzMiNnaXZlR29sZCMxMCMxMzk1MTAwNTY4IzIjc2hhcmVHb2xkVG9Vc2VyIw
p1074
(lp1075
I1
aI0
asVhttp://www.derp.org/
p1076
(lp1077
I1
aI6
asVhttp://youtu.be/4HqhLH2G-Ro
p1078
(lp1079
I1
aI2
asVhttp://www.demilked.com/john-malkovich-homage-to-photographic-masters-sandro-miller/
p1080
(lp1081
I1
aI5
asVhttp://www.telegraph.co.uk/travel/snowandski/8104856/The-worlds-ten-best-mountain-restaurants.html
p1082
(lp1083
I1
aI1
asVhttp://vimeo.com/118946875
p1084
(lp1085
I1
aI3
asVhttp://mic.com/articles/105876/watch-this-little-girl-turn-a-subway-station-into-a-grateful-dead-dance-party
p1086
(lp1087
I1
aI2
asVhttps://www.facebook.com/humansofnewyork/photos/a.102107073196735.4429.102099916530784/698764646864305/?type=1
p1088
(lp1089
I1
aI0
asVhttp://www.buzzfeed.com/samir/cretaceous-world-problems
p1090
(lp1091
I1
aI2
asVhttp://www.youtube.com/attribution_link?a=n4gYbyHdR50&u=%2Fwatch%3Fv%3D7zo64fBW_eM%26feature%3Dshare
p1092
(lp1093
I1
aI8
asVhttp://www.youtube.com/watch?v=_pT5kLrhOCM
p1094
(lp1095
I1
aI2
asVhttps://www.facebook.com/OneFitWidow/photos/a.316381368504136.1073741830.105549332920675/398270013648604/?type=1
p1096
(lp1097
I1
aI4
asVhttps://www.facebook.com/princetonODUS/photos/a.180358552076148.34060.176536919124978/608501759261823/?type=1
p1098
(lp1099
I1
aI9
asVhttps://www.youtube.com/watch?v=H07zYvkNYL8
p1100
(lp1101
I1
aI1
asVhttp://rollespilsakademiet.wix.com/college-of-wizardry
p1102
(lp1103
I1
aI0
asVhttps://fbcdn-sphotos-e-a.akamaihd.net/hphotos-ak-xpa1/v/t1.0-9/s130x130/15999_10152582977087076_5007449758907368508_n.jpg?oh=4b7464d7e2db0f2acfae2e662cd14461&oe=554883AE&__gda__=1435608441_b9857272a338fb20b351d5bdf5fbebe8
p1104
(lp1105
I2
aI146
asVhttps://vine.co/v/hxThaILYwqY
p1106
(lp1107
I1
aI1
asVhttps://www.facebook.com/video.php?v=953876864641274
p1108
(lp1109
I1
aI6
asVhttp://newsoffice.mit.edu/2014/lewin-courses-removed-1208
p1110
(lp1111
I1
aI43
asVhttps://fbcdn-sphotos-b-a.akamaihd.net/hphotos-ak-prn2/v/t1.0-9/p130x130/563027_10151246699281396_589607813_n.jpg?oh=e5010a62307a255d4469946a727c7655&oe=5551F136&__gda__=1435930335_4da3f882c472e5a373dc964f474f421a
p1112
(lp1113
I1
aI22
asVhttp://quizsocial.com/which-shakespeare-character-are-you/your-result-11/
p1114
(lp1115
I1
aI1
asVhttp://www.nytimes.com/2014/12/04/nyregion/grand-jury-said-to-bring-no-charges-in-staten-island-chokehold-death-of-eric-garner.html
p1116
(lp1117
I1
aI2
asVhttp://www.buzzfeed.com/tabathaleggett/struggles-sisters-who-live-far-apart-will-understand#38m76jh
p1118
(lp1119
I1
aI0
asVhttp://quizsocial.com/what-is-your-inner-nationality/your-result-7/
p1120
(lp1121
I1
aI1
asVhttps://www.facebook.com/video.php?v=787877794605938
p1122
(lp1123
I1
aI4
asVhttps://www.facebook.com/weatherishappening/photos/a.682931065149933.1073741825.234620266647684/676240749152298/?type=1
p1124
(lp1125
I1
aI9
asVhttps://www.youtube.com/watch?v=ZmWH1F-caM8
p1126
(lp1127
I1
aI1
asVhttps://www.youtube.com/watch?v=iY_cIIyPZuw
p1128
(lp1129
I1
aI2
asVhttp://www.celebritytypes.com/big-five/test.php
p1130
(lp1131
I1
aI0
asVhttp://www.buzzfeed.com/jmzarina/35-things-every-engineer-has-to-deal-with-in-colle-bs9p
p1132
(lp1133
I1
aI7
asVhttp://9gag.com/gag/aRQn0dy
p1134
(lp1135
I1
aI0
asVhttp://recurringdevelopments.com/
p1136
(lp1137
I1
aI2
asVhttps://www.youtube.com/watch?v=3RZux-TsILk
p1138
(lp1139
I1
aI2
asVhttp://www.upworthy.com/the-5-awkward-times-experts-shut-down-news-anchors-by-being-experts?c=reccon3
p1140
(lp1141
I1
aI1
asVhttps://www.facebook.com/CampusKitchenWilliamandMary/photos/a.10151406957765539.528796.65736430538/10152814911375539/?type=1
p1142
(lp1143
I1
aI2
asVhttps://www.facebook.com/georgehtakei/photos/a.223098324386295.105971.205344452828349/845557528807035/?type=1
p1144
(lp1145
I1
aI4
asVhttp://the-toast.net/2014/11/17/bible-verses-word-philistines-replaced-haters/
p1146
(lp1147
I1
aI3
asVhttp://www.youtube.com/attribution_link?a=rEj1b7i2kbc&u=%2Fwatch%3Fv%3D2JJ9d97sd64%26feature%3Dshare
p1148
(lp1149
I1
aI0
asVhttp://www.mirror.co.uk/news/world-news/womens-prison-mass-jail-break-5120591
p1150
(lp1151
I1
aI5
asVhttp://www.youtube.com/watch?v=BPjdV4w2gBM
p1152
(lp1153
I1
aI1
asVhttp://www.buzzfeed.com/candydandy/21-cookie-butter-recipes-you-must-know-about-jdt5
p1154
(lp1155
I1
aI1
asVhttp://www.buzzfeed.com/ariellecalderon/pumpkin-spice-oreos?bftw&utm_term=4ldqpfp#38m76jh
p1156
(lp1157
I1
aI1
asVhttp://www.thecolorrunstore.com/gear/the-color-runtm-tutu.html
p1158
(lp1159
I1
aI0
asVhttps://www.facebook.com/HannibalismForFannibals/photos/a.513368445414353.1073741828.513335462084318/671358852948644/?type=1
p1160
(lp1161
I1
aI0
asVhttps://www.facebook.com/WPROFM/photos/a.74075314092.75711.8607539092/10152187192304093/?type=1
p1162
(lp1163
I1
aI1
asVhttp://youtu.be/rGxe83lXgJg
p1164
(lp1165
I1
aI2
asVhttp://m.imgur.com/gallery/KEMXm0o
p1166
(lp1167
I1
aI2
asVhttp://www.buzzfeed.com/kaelintully/its-ok-to-cause-a-big-old-ruckus-big-old-ruckus-big-old-ruck
p1168
(lp1169
I1
aI0
asVhttp://www.accuweather.com/en/weather-news/tropical-gulf-southeast-floodi/16575404
p1170
(lp1171
I1
aI2
asVhttps://www.facebook.com/video.php?v=1393641344207208
p1172
(lp1173
I1
aI0
asVhttps://www.youtube.com/watch?v=L4fdxXo4tnY
p1174
(lp1175
I1
aI4
asVhttps://www.google.com/search?q=scotland%27s+national+animal&rlz=1C5CHFA_enUS503US505&oq=scotland%27s+national+&aqs=chrome.0.69i59j69i57j5j0.4005j0&sourceid=chrome&ie=UTF-8
p1176
(lp1177
I1
aI1
asVhttps://www.facebook.com/video.php?v=934555999888800
p1178
(lp1179
I1
aI1
asVhttp://www.theonion.com/articles/fbi-raids-kennedy-fundamentalist-compound,36767/
p1180
(lp1181
I1
aI3
asVhttp://grist.org/news/divine-intervention-pope-opposes-fracking/
p1182
(lp1183
I1
aI1
as.