(dp1
Vhttp://www.buzzfeed.com/chelseamarshall/the-story-of-christmas-as-told-by-sloths
p2
(lp3
I1
aI0
asVhttps://www.youtube.com/watch?v=lmI4sGC-Ewg
p4
(lp5
I1
aI2
asVhttps://www.facebook.com/globe/photos/a.10150195376623258.332014.5637143257/10153068899308258/?type=1
p6
(lp7
I1
aI1
asVhttp://vimeo.com/65533463
p8
(lp9
I1
aI6
asVhttp://youtu.be/iYY5iiesHCs
p10
(lp11
I1
aI1
asVhttps://www.facebook.com/video.php?v=720034848069368
p12
(lp13
I1
aI3
asS'num_links'
p14
I72
sVhttps://www.facebook.com/video.php?v=744525375630994
p15
(lp16
I1
aI0
asVhttp://thehairpin.com/2014/05/may-horoscopes-from-galactic-rabbit
p17
(lp18
I1
aI1
asVhttp://smarturl.it/tsto_device
p19
(lp20
I1
aI0
asVhttps://www.facebook.com/codecademy
p21
(lp22
I1
aI0
asVhttps://www.youtube.com/watch?v=GIUA6iFQ8so
p23
(lp24
I1
aI0
asVhttps://www.facebook.com/video.php?v=10152715877082734
p25
(lp26
I1
aI2
asVhttps://www.youtube.com/watch?v=KOBVHdrfOkY
p27
(lp28
I1
aI0
asVhttps://scontent.xx.fbcdn.net/hphotos-xfp1/v/t1.0-9/s130x130/10304644_10151989418606610_2106823771262777878_n.jpg?oh=1e79bca5ec2507f7f7dc614153efb625&oe=557E8428
p29
(lp30
I1
aI42
asVhttp://cafe.daum.net/CYsinbaram37
p31
(lp32
I1
aI20
asVhttps://www.facebook.com/thebigtino/photos/a.435163856024.197038.218195361024/10152686454406025/?type=1
p33
(lp34
I1
aI1
asVhttp://boston.barstoolsports.com/m/random-thoughts/dog-in-slow-motion-on-ice-sums-up-the-next-few-days-in-boston/
p35
(lp36
I1
aI2
asVhttps://www.facebook.com/NPR/photos/a.315515951755.185285.10643211755/10152917025016756/?type=1
p37
(lp38
I1
aI4
asV/events/651602811564929/
p39
(lp40
I1
aI0
asVhttp://ibnlive.in.com/news/gone-viral-pantenes-new-commercial-condemns-gender-stereotypes/436911-77.html
p41
(lp42
I1
aI11
asVhttps://www.facebook.com/video.php?v=922926901051745
p43
(lp44
I1
aI0
asVhttps://www.facebook.com/video.php?v=787877794605938
p45
(lp46
I1
aI4
asVhttp://m.youtube.com/watch?v=GJ6YPquq1UQ
p47
(lp48
I1
aI7
asVhttps://www.youtube.com/watch?v=kxopViU98Xo
p49
(lp50
I1
aI2
asVhttps://www.youtube.com/watch?v=6H6USR-cPwI
p51
(lp52
I1
aI1
asVhttps://www.facebook.com/video.php?v=10152751786010095
p53
(lp54
I1
aI0
asVhttp://apps.facebook.com/candycrush/?urlMessage=X01TPWelfpJppdAVyycEoZlxvILNLY-su8n1Cc5u7YM%3AMSMxNDk1MjU1NTU1MzQjMTIxOTYyMzYzMiNnaXZlR29sZCMxMCMxMzk1MTAwNTY4IzIjc2hhcmVHb2xkVG9Vc2VyIw
p55
(lp56
I1
aI0
asVhttps://vimeo.com/110367750
p57
(lp58
I1
aI3
asVhttps://www.facebook.com/IFeakingLoveScience/photos/a.456449604376056.98921.367116489976035/1006834539337557/?type=1
p59
(lp60
I1
aI3
asVhttps://www.facebook.com/video.php?v=443635009126723
p61
(lp62
I1
aI5
asVhttp://www.ebaumsworld.com/pictures/view/84450795/
p63
(lp64
I1
aI3
asVhttp://www.pitchperfectmovie.com/
p65
(lp66
I1
aI7
asVhttp://youtu.be/H9gEEQNoCpA
p67
(lp68
I1
aI1
asVhttp://www.youtube.com/watch?v=DeQqe0oj5Ls
p69
(lp70
I1
aI0
asVhttps://www.facebook.com/georgehtakei/photos/a.223098324386295.105971.205344452828349/845557528807035/?type=1
p71
(lp72
I1
aI4
asVhttp://www.esquire.com/_mobile/blogs/culture/better-call-saul-review
p73
(lp74
I1
aI0
asVhttps://www.youtube.com/watch?v=lcOxhH8N3Bo
p75
(lp76
I1
aI1
asVhttps://www.youtube.com/watch?x-yt-cl=85114404&v=q9MKRQ-xh0A&feature=player_embedded&x-yt-ts=1422579428
p77
(lp78
I1
aI2
asVhttp://cdn.iwastesomuchtime.com/929201415426.gif
p79
(lp80
I1
aI12
asVhttp://apps.facebook.com/holidaycards/view/119259?ref=feed_send_card_img&from_id=9125218
p81
(lp82
I1
aI0
asVhttps://scontent.xx.fbcdn.net/hphotos-xpf1/v/t1.0-9/s130x130/10959773_10152953579735865_7961800103766942585_n.jpg?oh=f45e58544318be81d821927382bd9821&oe=5588A264
p83
(lp84
I1
aI7
asVhttp://www.runnersworld.com/general-interest/lance-armstrong-tries-beer-mile-does-not-finish
p85
(lp86
I1
aI4
asVhttp://energizect.enervee.com/
p87
(lp88
I1
aI0
asVhttps://www.youtube.com/watch?v=meKhfr_CjQ0
p89
(lp90
I1
aI1
asVhttp://www.buzzfeed.com/skelliebat/25-signs-your-harry-potter-obsession-is-out-of-con-19ayr#.ihNLPB027
p91
(lp92
I1
aI0
asVhttps://www.facebook.com/humansofnewyork/photos/a.102107073196735.4429.102099916530784/698764646864305/?type=1
p93
(lp94
I1
aI0
asVhttps://www.facebook.com/video.php?v=990757634281893
p95
(lp96
I1
aI2
asVhttps://fbcdn-sphotos-b-a.akamaihd.net/hphotos-ak-prn2/v/t1.0-9/p130x130/563027_10151246699281396_589607813_n.jpg?oh=e5010a62307a255d4469946a727c7655&oe=5551F136&__gda__=1435930335_4da3f882c472e5a373dc964f474f421a
p97
(lp98
I1
aI22
asVhttp://bzfd.it/1EZJfbr
p99
(lp100
I1
aI3
asVhttp://cpatheatricals.org/2014/composer-teams-sought/
p101
(lp102
I2
aI1
asVhttp://www.youtube.com/watch?v=LKeU8ruo1K0&feature=share
p103
(lp104
I1
aI0
asVhttp://www.buzzfeed.com/jenlewis/which-love-actually-character-are-you
p105
(lp106
I1
aI3
asVhttp://youtu.be/rGxe83lXgJg
p107
(lp108
I1
aI2
asVhttp://youtu.be/e-BVs-KCSiA
p109
(lp110
I1
aI8
asVhttp://www.buzzfeed.com/kaelintully/its-ok-to-cause-a-big-old-ruckus-big-old-ruckus-big-old-ruck
p111
(lp112
I1
aI0
asVhttps://www.facebook.com/video.php?v=1572272279580315
p113
(lp114
I1
aI1
asVhttp://misterrad.tumblr.com/post/104682115982/time-to-sit-down
p115
(lp116
I1
aI4
asVhttps://www.facebook.com/video.php?v=1105372829485775
p117
(lp118
I1
aI9
asVhttps://www.youtube.com/watch?v=ICNoDBU-QI8&feature=youtu.be
p119
(lp120
I1
aI9
asVhttp://www.pbs.org/wgbh/masterpiece/watch-online/previews/wolf-hall-coming-april-2015/?elq=5d2a3852523244b280d59aa578d0b791&elqCampaignId=1173
p121
(lp122
I1
aI0
asVhttps://www.facebook.com/vibrationradio/photos/a.458453430837.244800.25532495837/10152111973305838/?type=1
p123
(lp124
I1
aI2
asVhttps://www.youtube.com/watch?v=L4fdxXo4tnY
p125
(lp126
I1
aI4
asVhttp://themetapicture.com/when-they-brought-these-wolves/
p127
(lp128
I1
aI0
asS'num_posts'
p129
I100
sVhttp://www.theguardian.com/travel/2015/feb/03/lets-go-to-leicester-weekend-breaks-comedy-festival
p130
(lp131
I1
aI1
asVhttp://jonnegroni.com/2013/07/11/the-pixar-theory/
p132
(lp133
I1
aI0
asVhttp://instinctmagazine.com/post/azealia-banks-so-what-if-im-homophobe-i-make-more-money-you
p134
(lp135
I2
aI18
asVhttps://www.facebook.com/grabbarsombryter/photos/a.226014824222077.1073741825.141528439337383/361809063975985/?type=1
p136
(lp137
I1
aI18
asVhttps://www.facebook.com/video.php?v=10152416958167569
p138
(lp139
I1
aI8
asVhttp://www.theonion.com/articles/pretty-cute-watching-boston-residents-play-daily-g,31554/?utm_source=Facebook&utm_medium=SocialMarketing&utm_campaign=LinkPreview%3ANA%3AInFocus
p140
(lp141
I1
aI0
asVhttps://www.facebook.com/video.php?v=878206742244785
p142
(lp143
I1
aI1
as.